
kernel.out:     file format elf32-i386


Disassembly of section .text:

00100000 <kernel_main-0x10>:
  100000:	02 b0 ad 1b 03 00    	add    0x31bad(%eax),%dh
  100006:	00 00                	add    %al,(%eax)
  100008:	fb                   	sti    
  100009:	4f                   	dec    %edi
  10000a:	52                   	push   %edx
  10000b:	e4 66                	in     $0x66,%al
  10000d:	90                   	nop
  10000e:	66 90                	xchg   %ax,%ax

00100010 <kernel_main>:
  100010:	83 ec 0c             	sub    $0xc,%esp
  100013:	e8 d8 06 00 00       	call   1006f0 <term_init>
  100018:	83 ec 0c             	sub    $0xc,%esp
  10001b:	68 40 08 10 00       	push   $0x100840
  100020:	e8 fb 07 00 00       	call   100820 <term_print>
  100025:	83 c4 10             	add    $0x10,%esp
  100028:	eb fe                	jmp    100028 <kernel_main+0x18>

0010002a <lgdt>:
  10002a:	55                   	push   %ebp
  10002b:	89 e5                	mov    %esp,%ebp
  10002d:	0f 01 55 00          	lgdtl  0x0(%ebp)
  100031:	5d                   	pop    %ebp
  100032:	c3                   	ret    

00100033 <start>:
  100033:	8b 25 20 60 10 00    	mov    0x106020,%esp
  100039:	e8 d2 ff ff ff       	call   100010 <kernel_main>

0010003e <.hang>:
  10003e:	fa                   	cli    
  10003f:	f4                   	hlt    
  100040:	eb fc                	jmp    10003e <.hang>
  100042:	66 90                	xchg   %ax,%ax
  100044:	66 90                	xchg   %ax,%ax
  100046:	66 90                	xchg   %ax,%ax
  100048:	66 90                	xchg   %ax,%ax
  10004a:	66 90                	xchg   %ax,%ax
  10004c:	66 90                	xchg   %ax,%ax
  10004e:	66 90                	xchg   %ax,%ax

00100050 <make_flags>:
  100050:	0f b6 44 24 0c       	movzbl 0xc(%esp),%eax
  100055:	0f b6 54 24 08       	movzbl 0x8(%esp),%edx
  10005a:	c1 e0 04             	shl    $0x4,%eax
  10005d:	0a 44 24 10          	or     0x10(%esp),%al
  100061:	c1 e2 05             	shl    $0x5,%edx
  100064:	09 d0                	or     %edx,%eax
  100066:	0f b6 54 24 04       	movzbl 0x4(%esp),%edx
  10006b:	c1 e2 07             	shl    $0x7,%edx
  10006e:	09 d0                	or     %edx,%eax
  100070:	c3                   	ret    
  100071:	eb 0d                	jmp    100080 <init_gdt>
  100073:	90                   	nop
  100074:	90                   	nop
  100075:	90                   	nop
  100076:	90                   	nop
  100077:	90                   	nop
  100078:	90                   	nop
  100079:	90                   	nop
  10007a:	90                   	nop
  10007b:	90                   	nop
  10007c:	90                   	nop
  10007d:	90                   	nop
  10007e:	90                   	nop
  10007f:	90                   	nop

00100080 <init_gdt>:
  100080:	b8 ff ff ff ff       	mov    $0xffffffff,%eax
  100085:	31 d2                	xor    %edx,%edx
  100087:	b9 ff ff ff ff       	mov    $0xffffffff,%ecx
  10008c:	66 a3 08 20 10 00    	mov    %ax,0x102008
  100092:	0f b6 05 0e 20 10 00 	movzbl 0x10200e,%eax
  100099:	c7 05 00 20 10 00 00 	movl   $0x0,0x102000
  1000a0:	00 00 00 
  1000a3:	c7 05 04 20 10 00 00 	movl   $0x0,0x102004
  1000aa:	00 00 00 
  1000ad:	66 89 15 0a 20 10 00 	mov    %dx,0x10200a
  1000b4:	c6 05 0c 20 10 00 00 	movb   $0x0,0x10200c
  1000bb:	c6 05 0d 20 10 00 9f 	movb   $0x9f,0x10200d
  1000c2:	c6 05 0f 20 10 00 00 	movb   $0x0,0x10200f
  1000c9:	83 e0 80             	and    $0xffffff80,%eax
  1000cc:	66 89 0d 10 20 10 00 	mov    %cx,0x102010
  1000d3:	c6 05 14 20 10 00 00 	movb   $0x0,0x102014
  1000da:	83 c8 5f             	or     $0x5f,%eax
  1000dd:	c6 05 15 20 10 00 92 	movb   $0x92,0x102015
  1000e4:	c6 05 17 20 10 00 00 	movb   $0x0,0x102017
  1000eb:	a2 0e 20 10 00       	mov    %al,0x10200e
  1000f0:	31 c0                	xor    %eax,%eax
  1000f2:	c7 05 18 20 10 00 00 	movl   $0x0,0x102018
  1000f9:	00 00 00 
  1000fc:	66 a3 12 20 10 00    	mov    %ax,0x102012
  100102:	0f b6 05 16 20 10 00 	movzbl 0x102016,%eax
  100109:	c7 05 1c 20 10 00 00 	movl   $0x0,0x10201c
  100110:	00 00 00 
  100113:	83 e0 80             	and    $0xffffff80,%eax
  100116:	83 c8 5f             	or     $0x5f,%eax
  100119:	a2 16 20 10 00       	mov    %al,0x102016
  10011e:	c3                   	ret    
  10011f:	90                   	nop

00100120 <memcpy>:
  100120:	56                   	push   %esi
  100121:	53                   	push   %ebx
  100122:	8b 5c 24 14          	mov    0x14(%esp),%ebx
  100126:	8b 44 24 0c          	mov    0xc(%esp),%eax
  10012a:	8b 74 24 10          	mov    0x10(%esp),%esi
  10012e:	85 db                	test   %ebx,%ebx
  100130:	74 1c                	je     10014e <memcpy+0x2e>
  100132:	31 d2                	xor    %edx,%edx
  100134:	8d b6 00 00 00 00    	lea    0x0(%esi),%esi
  10013a:	8d bf 00 00 00 00    	lea    0x0(%edi),%edi
  100140:	0f b6 0c 16          	movzbl (%esi,%edx,1),%ecx
  100144:	88 0c 10             	mov    %cl,(%eax,%edx,1)
  100147:	83 c2 01             	add    $0x1,%edx
  10014a:	39 d3                	cmp    %edx,%ebx
  10014c:	75 f2                	jne    100140 <memcpy+0x20>
  10014e:	5b                   	pop    %ebx
  10014f:	5e                   	pop    %esi
  100150:	c3                   	ret    
  100151:	66 90                	xchg   %ax,%ax
  100153:	66 90                	xchg   %ax,%ax
  100155:	66 90                	xchg   %ax,%ax
  100157:	66 90                	xchg   %ax,%ax
  100159:	66 90                	xchg   %ax,%ax
  10015b:	66 90                	xchg   %ax,%ax
  10015d:	66 90                	xchg   %ax,%ax
  10015f:	90                   	nop

00100160 <stpcpy>:
  100160:	56                   	push   %esi
  100161:	53                   	push   %ebx
  100162:	83 ec 10             	sub    $0x10,%esp
  100165:	8b 74 24 20          	mov    0x20(%esp),%esi
  100169:	8b 5c 24 1c          	mov    0x1c(%esp),%ebx
  10016d:	56                   	push   %esi
  10016e:	e8 3d 05 00 00       	call   1006b0 <strlen>
  100173:	83 c4 10             	add    $0x10,%esp
  100176:	31 d2                	xor    %edx,%edx
  100178:	90                   	nop
  100179:	8d b4 26 00 00 00 00 	lea    0x0(%esi,%eiz,1),%esi
  100180:	0f b6 0c 16          	movzbl (%esi,%edx,1),%ecx
  100184:	88 0c 13             	mov    %cl,(%ebx,%edx,1)
  100187:	83 c2 01             	add    $0x1,%edx
  10018a:	39 d0                	cmp    %edx,%eax
  10018c:	73 f2                	jae    100180 <stpcpy+0x20>
  10018e:	83 c4 04             	add    $0x4,%esp
  100191:	01 d8                	add    %ebx,%eax
  100193:	5b                   	pop    %ebx
  100194:	5e                   	pop    %esi
  100195:	c3                   	ret    
  100196:	66 90                	xchg   %ax,%ax
  100198:	66 90                	xchg   %ax,%ax
  10019a:	66 90                	xchg   %ax,%ax
  10019c:	66 90                	xchg   %ax,%ax
  10019e:	66 90                	xchg   %ax,%ax

001001a0 <strcpy>:
  1001a0:	56                   	push   %esi
  1001a1:	53                   	push   %ebx
  1001a2:	83 ec 10             	sub    $0x10,%esp
  1001a5:	8b 74 24 20          	mov    0x20(%esp),%esi
  1001a9:	8b 5c 24 1c          	mov    0x1c(%esp),%ebx
  1001ad:	56                   	push   %esi
  1001ae:	e8 fd 04 00 00       	call   1006b0 <strlen>
  1001b3:	83 c4 10             	add    $0x10,%esp
  1001b6:	31 d2                	xor    %edx,%edx
  1001b8:	90                   	nop
  1001b9:	8d b4 26 00 00 00 00 	lea    0x0(%esi,%eiz,1),%esi
  1001c0:	0f b6 0c 16          	movzbl (%esi,%edx,1),%ecx
  1001c4:	88 0c 13             	mov    %cl,(%ebx,%edx,1)
  1001c7:	83 c2 01             	add    $0x1,%edx
  1001ca:	39 d0                	cmp    %edx,%eax
  1001cc:	73 f2                	jae    1001c0 <strcpy+0x20>
  1001ce:	83 c4 04             	add    $0x4,%esp
  1001d1:	89 d8                	mov    %ebx,%eax
  1001d3:	5b                   	pop    %ebx
  1001d4:	5e                   	pop    %esi
  1001d5:	c3                   	ret    
  1001d6:	8d 76 00             	lea    0x0(%esi),%esi
  1001d9:	8d bc 27 00 00 00 00 	lea    0x0(%edi,%eiz,1),%edi

001001e0 <strncpy>:
  1001e0:	f3 c3                	repz ret 
  1001e2:	66 90                	xchg   %ax,%ax
  1001e4:	66 90                	xchg   %ax,%ax
  1001e6:	66 90                	xchg   %ax,%ax
  1001e8:	66 90                	xchg   %ax,%ax
  1001ea:	66 90                	xchg   %ax,%ax
  1001ec:	66 90                	xchg   %ax,%ax
  1001ee:	66 90                	xchg   %ax,%ax

001001f0 <strcmp>:
  1001f0:	56                   	push   %esi
  1001f1:	53                   	push   %ebx
  1001f2:	8b 5c 24 0c          	mov    0xc(%esp),%ebx
  1001f6:	8b 74 24 10          	mov    0x10(%esp),%esi
  1001fa:	0f b6 03             	movzbl (%ebx),%eax
  1001fd:	84 c0                	test   %al,%al
  1001ff:	74 38                	je     100239 <strcmp+0x49>
  100201:	0f b6 16             	movzbl (%esi),%edx
  100204:	84 d2                	test   %dl,%dl
  100206:	74 31                	je     100239 <strcmp+0x49>
  100208:	38 d0                	cmp    %dl,%al
  10020a:	7f 34                	jg     100240 <strcmp+0x50>
  10020c:	7c 42                	jl     100250 <strcmp+0x60>
  10020e:	31 c0                	xor    %eax,%eax
  100210:	eb 1c                	jmp    10022e <strcmp+0x3e>
  100212:	8d b4 26 00 00 00 00 	lea    0x0(%esi,%eiz,1),%esi
  100219:	8d bc 27 00 00 00 00 	lea    0x0(%edi,%eiz,1),%edi
  100220:	0f b6 0c 06          	movzbl (%esi,%eax,1),%ecx
  100224:	84 c9                	test   %cl,%cl
  100226:	74 11                	je     100239 <strcmp+0x49>
  100228:	38 ca                	cmp    %cl,%dl
  10022a:	7f 14                	jg     100240 <strcmp+0x50>
  10022c:	7c 22                	jl     100250 <strcmp+0x60>
  10022e:	83 c0 01             	add    $0x1,%eax
  100231:	0f b6 14 03          	movzbl (%ebx,%eax,1),%edx
  100235:	84 d2                	test   %dl,%dl
  100237:	75 e7                	jne    100220 <strcmp+0x30>
  100239:	31 c0                	xor    %eax,%eax
  10023b:	5b                   	pop    %ebx
  10023c:	5e                   	pop    %esi
  10023d:	c3                   	ret    
  10023e:	66 90                	xchg   %ax,%ax
  100240:	b8 01 00 00 00       	mov    $0x1,%eax
  100245:	5b                   	pop    %ebx
  100246:	5e                   	pop    %esi
  100247:	c3                   	ret    
  100248:	90                   	nop
  100249:	8d b4 26 00 00 00 00 	lea    0x0(%esi,%eiz,1),%esi
  100250:	b8 ff ff ff ff       	mov    $0xffffffff,%eax
  100255:	5b                   	pop    %ebx
  100256:	5e                   	pop    %esi
  100257:	c3                   	ret    
  100258:	90                   	nop
  100259:	8d b4 26 00 00 00 00 	lea    0x0(%esi,%eiz,1),%esi

00100260 <strncmp>:
  100260:	56                   	push   %esi
  100261:	53                   	push   %ebx
  100262:	8b 74 24 14          	mov    0x14(%esp),%esi
  100266:	8b 4c 24 0c          	mov    0xc(%esp),%ecx
  10026a:	8b 5c 24 10          	mov    0x10(%esp),%ebx
  10026e:	85 f6                	test   %esi,%esi
  100270:	74 20                	je     100292 <strncmp+0x32>
  100272:	0f b6 03             	movzbl (%ebx),%eax
  100275:	38 01                	cmp    %al,(%ecx)
  100277:	7f 27                	jg     1002a0 <strncmp+0x40>
  100279:	7c 35                	jl     1002b0 <strncmp+0x50>
  10027b:	31 c0                	xor    %eax,%eax
  10027d:	eb 0c                	jmp    10028b <strncmp+0x2b>
  10027f:	90                   	nop
  100280:	0f b6 14 03          	movzbl (%ebx,%eax,1),%edx
  100284:	38 14 01             	cmp    %dl,(%ecx,%eax,1)
  100287:	7f 17                	jg     1002a0 <strncmp+0x40>
  100289:	7c 25                	jl     1002b0 <strncmp+0x50>
  10028b:	83 c0 01             	add    $0x1,%eax
  10028e:	39 c6                	cmp    %eax,%esi
  100290:	75 ee                	jne    100280 <strncmp+0x20>
  100292:	31 c0                	xor    %eax,%eax
  100294:	5b                   	pop    %ebx
  100295:	5e                   	pop    %esi
  100296:	c3                   	ret    
  100297:	89 f6                	mov    %esi,%esi
  100299:	8d bc 27 00 00 00 00 	lea    0x0(%edi,%eiz,1),%edi
  1002a0:	b8 01 00 00 00       	mov    $0x1,%eax
  1002a5:	5b                   	pop    %ebx
  1002a6:	5e                   	pop    %esi
  1002a7:	c3                   	ret    
  1002a8:	90                   	nop
  1002a9:	8d b4 26 00 00 00 00 	lea    0x0(%esi,%eiz,1),%esi
  1002b0:	b8 ff ff ff ff       	mov    $0xffffffff,%eax
  1002b5:	5b                   	pop    %ebx
  1002b6:	5e                   	pop    %esi
  1002b7:	c3                   	ret    
  1002b8:	66 90                	xchg   %ax,%ax
  1002ba:	66 90                	xchg   %ax,%ax
  1002bc:	66 90                	xchg   %ax,%ax
  1002be:	66 90                	xchg   %ax,%ax

001002c0 <strcasecmp>:
  1002c0:	55                   	push   %ebp
  1002c1:	57                   	push   %edi
  1002c2:	56                   	push   %esi
  1002c3:	53                   	push   %ebx
  1002c4:	8b 6c 24 14          	mov    0x14(%esp),%ebp
  1002c8:	8b 74 24 18          	mov    0x18(%esp),%esi
  1002cc:	0f b6 5d 00          	movzbl 0x0(%ebp),%ebx
  1002d0:	84 db                	test   %bl,%bl
  1002d2:	0f 84 a8 00 00 00    	je     100380 <strcasecmp+0xc0>
  1002d8:	0f be 06             	movsbl (%esi),%eax
  1002db:	84 c0                	test   %al,%al
  1002dd:	0f 84 9d 00 00 00    	je     100380 <strcasecmp+0xc0>
  1002e3:	31 c9                	xor    %ecx,%ecx
  1002e5:	eb 36                	jmp    10031d <strcasecmp+0x5d>
  1002e7:	89 f6                	mov    %esi,%esi
  1002e9:	8d bc 27 00 00 00 00 	lea    0x0(%edi,%eiz,1),%edi
  1002f0:	8d 50 9f             	lea    -0x61(%eax),%edx
  1002f3:	80 fa 19             	cmp    $0x19,%dl
  1002f6:	77 68                	ja     100360 <strcasecmp+0xa0>
  1002f8:	8d 50 e1             	lea    -0x1f(%eax),%edx
  1002fb:	0f be fb             	movsbl %bl,%edi
  1002fe:	39 fa                	cmp    %edi,%edx
  100300:	7e 6a                	jle    10036c <strcasecmp+0xac>
  100302:	83 e8 20             	sub    $0x20,%eax
  100305:	39 c7                	cmp    %eax,%edi
  100307:	75 40                	jne    100349 <strcasecmp+0x89>
  100309:	83 c1 01             	add    $0x1,%ecx
  10030c:	0f b6 5c 0d 00       	movzbl 0x0(%ebp,%ecx,1),%ebx
  100311:	84 db                	test   %bl,%bl
  100313:	74 6b                	je     100380 <strcasecmp+0xc0>
  100315:	0f be 04 0e          	movsbl (%esi,%ecx,1),%eax
  100319:	84 c0                	test   %al,%al
  10031b:	74 63                	je     100380 <strcasecmp+0xc0>
  10031d:	8d 53 bf             	lea    -0x41(%ebx),%edx
  100320:	80 fa 19             	cmp    $0x19,%dl
  100323:	76 cb                	jbe    1002f0 <strcasecmp+0x30>
  100325:	8d 53 9f             	lea    -0x61(%ebx),%edx
  100328:	80 fa 19             	cmp    $0x19,%dl
  10032b:	77 dc                	ja     100309 <strcasecmp+0x49>
  10032d:	8d 50 9f             	lea    -0x61(%eax),%edx
  100330:	80 fa 19             	cmp    $0x19,%dl
  100333:	76 33                	jbe    100368 <strcasecmp+0xa8>
  100335:	8d 50 bf             	lea    -0x41(%eax),%edx
  100338:	80 fa 19             	cmp    $0x19,%dl
  10033b:	77 cc                	ja     100309 <strcasecmp+0x49>
  10033d:	0f be fb             	movsbl %bl,%edi
  100340:	83 c0 20             	add    $0x20,%eax
  100343:	39 c7                	cmp    %eax,%edi
  100345:	7f 25                	jg     10036c <strcasecmp+0xac>
  100347:	74 c0                	je     100309 <strcasecmp+0x49>
  100349:	5b                   	pop    %ebx
  10034a:	b8 ff ff ff ff       	mov    $0xffffffff,%eax
  10034f:	5e                   	pop    %esi
  100350:	5f                   	pop    %edi
  100351:	5d                   	pop    %ebp
  100352:	c3                   	ret    
  100353:	8d b6 00 00 00 00    	lea    0x0(%esi),%esi
  100359:	8d bc 27 00 00 00 00 	lea    0x0(%edi,%eiz,1),%edi
  100360:	8d 50 bf             	lea    -0x41(%eax),%edx
  100363:	80 fa 19             	cmp    $0x19,%dl
  100366:	77 a1                	ja     100309 <strcasecmp+0x49>
  100368:	38 c3                	cmp    %al,%bl
  10036a:	7e db                	jle    100347 <strcasecmp+0x87>
  10036c:	5b                   	pop    %ebx
  10036d:	b8 01 00 00 00       	mov    $0x1,%eax
  100372:	5e                   	pop    %esi
  100373:	5f                   	pop    %edi
  100374:	5d                   	pop    %ebp
  100375:	c3                   	ret    
  100376:	8d 76 00             	lea    0x0(%esi),%esi
  100379:	8d bc 27 00 00 00 00 	lea    0x0(%edi,%eiz,1),%edi
  100380:	5b                   	pop    %ebx
  100381:	31 c0                	xor    %eax,%eax
  100383:	5e                   	pop    %esi
  100384:	5f                   	pop    %edi
  100385:	5d                   	pop    %ebp
  100386:	c3                   	ret    
  100387:	89 f6                	mov    %esi,%esi
  100389:	8d bc 27 00 00 00 00 	lea    0x0(%edi,%eiz,1),%edi

00100390 <strncasecmp>:
  100390:	55                   	push   %ebp
  100391:	57                   	push   %edi
  100392:	56                   	push   %esi
  100393:	53                   	push   %ebx
  100394:	83 ec 04             	sub    $0x4,%esp
  100397:	8b 44 24 20          	mov    0x20(%esp),%eax
  10039b:	8b 74 24 18          	mov    0x18(%esp),%esi
  10039f:	8b 7c 24 1c          	mov    0x1c(%esp),%edi
  1003a3:	85 c0                	test   %eax,%eax
  1003a5:	89 04 24             	mov    %eax,(%esp)
  1003a8:	74 68                	je     100412 <strncasecmp+0x82>
  1003aa:	31 c0                	xor    %eax,%eax
  1003ac:	eb 22                	jmp    1003d0 <strncasecmp+0x40>
  1003ae:	66 90                	xchg   %ax,%ax
  1003b0:	0f be 0c 07          	movsbl (%edi,%eax,1),%ecx
  1003b4:	8d 69 9f             	lea    -0x61(%ecx),%ebp
  1003b7:	89 eb                	mov    %ebp,%ebx
  1003b9:	80 fb 19             	cmp    $0x19,%bl
  1003bc:	76 7d                	jbe    10043b <strncasecmp+0xab>
  1003be:	8d 69 bf             	lea    -0x41(%ecx),%ebp
  1003c1:	89 eb                	mov    %ebp,%ebx
  1003c3:	80 fb 19             	cmp    $0x19,%bl
  1003c6:	76 58                	jbe    100420 <strncasecmp+0x90>
  1003c8:	83 c0 01             	add    $0x1,%eax
  1003cb:	39 04 24             	cmp    %eax,(%esp)
  1003ce:	74 42                	je     100412 <strncasecmp+0x82>
  1003d0:	0f be 14 06          	movsbl (%esi,%eax,1),%edx
  1003d4:	8d 4a bf             	lea    -0x41(%edx),%ecx
  1003d7:	80 f9 19             	cmp    $0x19,%cl
  1003da:	76 d4                	jbe    1003b0 <strncasecmp+0x20>
  1003dc:	8d 4a 9f             	lea    -0x61(%edx),%ecx
  1003df:	80 f9 19             	cmp    $0x19,%cl
  1003e2:	77 e4                	ja     1003c8 <strncasecmp+0x38>
  1003e4:	0f be 0c 07          	movsbl (%edi,%eax,1),%ecx
  1003e8:	8d 69 9f             	lea    -0x61(%ecx),%ebp
  1003eb:	89 eb                	mov    %ebp,%ebx
  1003ed:	80 fb 19             	cmp    $0x19,%bl
  1003f0:	76 2e                	jbe    100420 <strncasecmp+0x90>
  1003f2:	8d 69 bf             	lea    -0x41(%ecx),%ebp
  1003f5:	89 eb                	mov    %ebp,%ebx
  1003f7:	80 fb 19             	cmp    $0x19,%bl
  1003fa:	77 cc                	ja     1003c8 <strncasecmp+0x38>
  1003fc:	83 c1 20             	add    $0x20,%ecx
  1003ff:	31 c0                	xor    %eax,%eax
  100401:	39 ca                	cmp    %ecx,%edx
  100403:	0f 95 c0             	setne  %al
  100406:	f7 d8                	neg    %eax
  100408:	39 ca                	cmp    %ecx,%edx
  10040a:	ba 01 00 00 00       	mov    $0x1,%edx
  10040f:	0f 4f c2             	cmovg  %edx,%eax
  100412:	83 c4 04             	add    $0x4,%esp
  100415:	5b                   	pop    %ebx
  100416:	5e                   	pop    %esi
  100417:	5f                   	pop    %edi
  100418:	5d                   	pop    %ebp
  100419:	c3                   	ret    
  10041a:	8d b6 00 00 00 00    	lea    0x0(%esi),%esi
  100420:	31 c0                	xor    %eax,%eax
  100422:	38 ca                	cmp    %cl,%dl
  100424:	0f 95 c0             	setne  %al
  100427:	f7 d8                	neg    %eax
  100429:	38 ca                	cmp    %cl,%dl
  10042b:	ba 01 00 00 00       	mov    $0x1,%edx
  100430:	0f 4f c2             	cmovg  %edx,%eax
  100433:	83 c4 04             	add    $0x4,%esp
  100436:	5b                   	pop    %ebx
  100437:	5e                   	pop    %esi
  100438:	5f                   	pop    %edi
  100439:	5d                   	pop    %ebp
  10043a:	c3                   	ret    
  10043b:	8d 59 e1             	lea    -0x1f(%ecx),%ebx
  10043e:	b8 01 00 00 00       	mov    $0x1,%eax
  100443:	39 d3                	cmp    %edx,%ebx
  100445:	7e cb                	jle    100412 <strncasecmp+0x82>
  100447:	83 e9 20             	sub    $0x20,%ecx
  10044a:	31 c0                	xor    %eax,%eax
  10044c:	39 d1                	cmp    %edx,%ecx
  10044e:	0f 95 c0             	setne  %al
  100451:	83 c4 04             	add    $0x4,%esp
  100454:	5b                   	pop    %ebx
  100455:	f7 d8                	neg    %eax
  100457:	5e                   	pop    %esi
  100458:	5f                   	pop    %edi
  100459:	5d                   	pop    %ebp
  10045a:	c3                   	ret    
  10045b:	66 90                	xchg   %ax,%ax
  10045d:	66 90                	xchg   %ax,%ax
  10045f:	90                   	nop

00100460 <strcat>:
  100460:	57                   	push   %edi
  100461:	56                   	push   %esi
  100462:	53                   	push   %ebx
  100463:	8b 5c 24 10          	mov    0x10(%esp),%ebx
  100467:	8b 7c 24 14          	mov    0x14(%esp),%edi
  10046b:	83 ec 0c             	sub    $0xc,%esp
  10046e:	53                   	push   %ebx
  10046f:	e8 3c 02 00 00       	call   1006b0 <strlen>
  100474:	89 c6                	mov    %eax,%esi
  100476:	89 3c 24             	mov    %edi,(%esp)
  100479:	01 de                	add    %ebx,%esi
  10047b:	e8 30 02 00 00       	call   1006b0 <strlen>
  100480:	83 c4 10             	add    $0x10,%esp
  100483:	85 c0                	test   %eax,%eax
  100485:	74 17                	je     10049e <strcat+0x3e>
  100487:	31 d2                	xor    %edx,%edx
  100489:	8d b4 26 00 00 00 00 	lea    0x0(%esi,%eiz,1),%esi
  100490:	0f b6 0c 17          	movzbl (%edi,%edx,1),%ecx
  100494:	88 0c 16             	mov    %cl,(%esi,%edx,1)
  100497:	83 c2 01             	add    $0x1,%edx
  10049a:	39 d0                	cmp    %edx,%eax
  10049c:	75 f2                	jne    100490 <strcat+0x30>
  10049e:	c6 04 06 00          	movb   $0x0,(%esi,%eax,1)
  1004a2:	89 d8                	mov    %ebx,%eax
  1004a4:	5b                   	pop    %ebx
  1004a5:	5e                   	pop    %esi
  1004a6:	5f                   	pop    %edi
  1004a7:	c3                   	ret    
  1004a8:	90                   	nop
  1004a9:	8d b4 26 00 00 00 00 	lea    0x0(%esi,%eiz,1),%esi

001004b0 <strncat>:
  1004b0:	57                   	push   %edi
  1004b1:	56                   	push   %esi
  1004b2:	53                   	push   %ebx
  1004b3:	8b 74 24 10          	mov    0x10(%esp),%esi
  1004b7:	8b 7c 24 14          	mov    0x14(%esp),%edi
  1004bb:	8b 5c 24 18          	mov    0x18(%esp),%ebx
  1004bf:	83 ec 0c             	sub    $0xc,%esp
  1004c2:	56                   	push   %esi
  1004c3:	e8 e8 01 00 00       	call   1006b0 <strlen>
  1004c8:	83 c4 10             	add    $0x10,%esp
  1004cb:	85 db                	test   %ebx,%ebx
  1004cd:	8d 0c 06             	lea    (%esi,%eax,1),%ecx
  1004d0:	74 1c                	je     1004ee <strncat+0x3e>
  1004d2:	31 d2                	xor    %edx,%edx
  1004d4:	8d b6 00 00 00 00    	lea    0x0(%esi),%esi
  1004da:	8d bf 00 00 00 00    	lea    0x0(%edi),%edi
  1004e0:	0f b6 04 17          	movzbl (%edi,%edx,1),%eax
  1004e4:	88 04 11             	mov    %al,(%ecx,%edx,1)
  1004e7:	83 c2 01             	add    $0x1,%edx
  1004ea:	39 d3                	cmp    %edx,%ebx
  1004ec:	75 f2                	jne    1004e0 <strncat+0x30>
  1004ee:	c6 04 19 00          	movb   $0x0,(%ecx,%ebx,1)
  1004f2:	89 f0                	mov    %esi,%eax
  1004f4:	5b                   	pop    %ebx
  1004f5:	5e                   	pop    %esi
  1004f6:	5f                   	pop    %edi
  1004f7:	c3                   	ret    
  1004f8:	66 90                	xchg   %ax,%ax
  1004fa:	66 90                	xchg   %ax,%ax
  1004fc:	66 90                	xchg   %ax,%ax
  1004fe:	66 90                	xchg   %ax,%ax

00100500 <strchr>:
  100500:	56                   	push   %esi
  100501:	53                   	push   %ebx
  100502:	83 ec 10             	sub    $0x10,%esp
  100505:	8b 5c 24 1c          	mov    0x1c(%esp),%ebx
  100509:	8b 74 24 20          	mov    0x20(%esp),%esi
  10050d:	53                   	push   %ebx
  10050e:	e8 9d 01 00 00       	call   1006b0 <strlen>
  100513:	83 c4 10             	add    $0x10,%esp
  100516:	89 da                	mov    %ebx,%edx
  100518:	31 c9                	xor    %ecx,%ecx
  10051a:	8d b6 00 00 00 00    	lea    0x0(%esi),%esi
  100520:	0f be 1a             	movsbl (%edx),%ebx
  100523:	39 f3                	cmp    %esi,%ebx
  100525:	74 19                	je     100540 <strchr+0x40>
  100527:	83 c1 01             	add    $0x1,%ecx
  10052a:	83 c2 01             	add    $0x1,%edx
  10052d:	39 c8                	cmp    %ecx,%eax
  10052f:	73 ef                	jae    100520 <strchr+0x20>
  100531:	83 c4 04             	add    $0x4,%esp
  100534:	31 c0                	xor    %eax,%eax
  100536:	5b                   	pop    %ebx
  100537:	5e                   	pop    %esi
  100538:	c3                   	ret    
  100539:	8d b4 26 00 00 00 00 	lea    0x0(%esi,%eiz,1),%esi
  100540:	83 c4 04             	add    $0x4,%esp
  100543:	89 d0                	mov    %edx,%eax
  100545:	5b                   	pop    %ebx
  100546:	5e                   	pop    %esi
  100547:	c3                   	ret    
  100548:	90                   	nop
  100549:	8d b4 26 00 00 00 00 	lea    0x0(%esi,%eiz,1),%esi

00100550 <strrchr>:
  100550:	56                   	push   %esi
  100551:	53                   	push   %ebx
  100552:	83 ec 10             	sub    $0x10,%esp
  100555:	8b 5c 24 1c          	mov    0x1c(%esp),%ebx
  100559:	8b 74 24 20          	mov    0x20(%esp),%esi
  10055d:	53                   	push   %ebx
  10055e:	e8 4d 01 00 00       	call   1006b0 <strlen>
  100563:	8d 14 03             	lea    (%ebx,%eax,1),%edx
  100566:	83 c4 10             	add    $0x10,%esp
  100569:	0f be 0a             	movsbl (%edx),%ecx
  10056c:	39 ce                	cmp    %ecx,%esi
  10056e:	74 38                	je     1005a8 <strrchr+0x58>
  100570:	85 c0                	test   %eax,%eax
  100572:	74 2c                	je     1005a0 <strrchr+0x50>
  100574:	8d 44 03 ff          	lea    -0x1(%ebx,%eax,1),%eax
  100578:	8d 4b ff             	lea    -0x1(%ebx),%ecx
  10057b:	eb 0a                	jmp    100587 <strrchr+0x37>
  10057d:	8d 76 00             	lea    0x0(%esi),%esi
  100580:	83 e8 01             	sub    $0x1,%eax
  100583:	39 c8                	cmp    %ecx,%eax
  100585:	74 19                	je     1005a0 <strrchr+0x50>
  100587:	0f be 10             	movsbl (%eax),%edx
  10058a:	39 f2                	cmp    %esi,%edx
  10058c:	75 f2                	jne    100580 <strrchr+0x30>
  10058e:	83 c4 04             	add    $0x4,%esp
  100591:	5b                   	pop    %ebx
  100592:	5e                   	pop    %esi
  100593:	c3                   	ret    
  100594:	8d b6 00 00 00 00    	lea    0x0(%esi),%esi
  10059a:	8d bf 00 00 00 00    	lea    0x0(%edi),%edi
  1005a0:	83 c4 04             	add    $0x4,%esp
  1005a3:	31 c0                	xor    %eax,%eax
  1005a5:	5b                   	pop    %ebx
  1005a6:	5e                   	pop    %esi
  1005a7:	c3                   	ret    
  1005a8:	89 d0                	mov    %edx,%eax
  1005aa:	eb e2                	jmp    10058e <strrchr+0x3e>
  1005ac:	8d 74 26 00          	lea    0x0(%esi,%eiz,1),%esi

001005b0 <strchrnul>:
  1005b0:	57                   	push   %edi
  1005b1:	56                   	push   %esi
  1005b2:	53                   	push   %ebx
  1005b3:	8b 74 24 10          	mov    0x10(%esp),%esi
  1005b7:	8b 7c 24 14          	mov    0x14(%esp),%edi
  1005bb:	83 ec 0c             	sub    $0xc,%esp
  1005be:	56                   	push   %esi
  1005bf:	e8 ec 00 00 00       	call   1006b0 <strlen>
  1005c4:	83 c4 10             	add    $0x10,%esp
  1005c7:	89 f2                	mov    %esi,%edx
  1005c9:	31 c9                	xor    %ecx,%ecx
  1005cb:	90                   	nop
  1005cc:	8d 74 26 00          	lea    0x0(%esi,%eiz,1),%esi
  1005d0:	0f be 1a             	movsbl (%edx),%ebx
  1005d3:	39 fb                	cmp    %edi,%ebx
  1005d5:	74 19                	je     1005f0 <strchrnul+0x40>
  1005d7:	83 c1 01             	add    $0x1,%ecx
  1005da:	83 c2 01             	add    $0x1,%edx
  1005dd:	39 c8                	cmp    %ecx,%eax
  1005df:	73 ef                	jae    1005d0 <strchrnul+0x20>
  1005e1:	01 f0                	add    %esi,%eax
  1005e3:	5b                   	pop    %ebx
  1005e4:	5e                   	pop    %esi
  1005e5:	5f                   	pop    %edi
  1005e6:	c3                   	ret    
  1005e7:	89 f6                	mov    %esi,%esi
  1005e9:	8d bc 27 00 00 00 00 	lea    0x0(%edi,%eiz,1),%edi
  1005f0:	5b                   	pop    %ebx
  1005f1:	89 d0                	mov    %edx,%eax
  1005f3:	5e                   	pop    %esi
  1005f4:	5f                   	pop    %edi
  1005f5:	c3                   	ret    
  1005f6:	66 90                	xchg   %ax,%ax
  1005f8:	66 90                	xchg   %ax,%ax
  1005fa:	66 90                	xchg   %ax,%ax
  1005fc:	66 90                	xchg   %ax,%ax
  1005fe:	66 90                	xchg   %ax,%ax

00100600 <index>:
  100600:	56                   	push   %esi
  100601:	53                   	push   %ebx
  100602:	83 ec 10             	sub    $0x10,%esp
  100605:	8b 5c 24 1c          	mov    0x1c(%esp),%ebx
  100609:	8b 74 24 20          	mov    0x20(%esp),%esi
  10060d:	53                   	push   %ebx
  10060e:	e8 9d 00 00 00       	call   1006b0 <strlen>
  100613:	83 c4 10             	add    $0x10,%esp
  100616:	89 da                	mov    %ebx,%edx
  100618:	31 c9                	xor    %ecx,%ecx
  10061a:	8d b6 00 00 00 00    	lea    0x0(%esi),%esi
  100620:	0f be 1a             	movsbl (%edx),%ebx
  100623:	39 f3                	cmp    %esi,%ebx
  100625:	74 19                	je     100640 <index+0x40>
  100627:	83 c1 01             	add    $0x1,%ecx
  10062a:	83 c2 01             	add    $0x1,%edx
  10062d:	39 c8                	cmp    %ecx,%eax
  10062f:	73 ef                	jae    100620 <index+0x20>
  100631:	83 c4 04             	add    $0x4,%esp
  100634:	31 c0                	xor    %eax,%eax
  100636:	5b                   	pop    %ebx
  100637:	5e                   	pop    %esi
  100638:	c3                   	ret    
  100639:	8d b4 26 00 00 00 00 	lea    0x0(%esi,%eiz,1),%esi
  100640:	83 c4 04             	add    $0x4,%esp
  100643:	89 d0                	mov    %edx,%eax
  100645:	5b                   	pop    %ebx
  100646:	5e                   	pop    %esi
  100647:	c3                   	ret    
  100648:	90                   	nop
  100649:	8d b4 26 00 00 00 00 	lea    0x0(%esi,%eiz,1),%esi

00100650 <rindex>:
  100650:	56                   	push   %esi
  100651:	53                   	push   %ebx
  100652:	83 ec 10             	sub    $0x10,%esp
  100655:	8b 5c 24 1c          	mov    0x1c(%esp),%ebx
  100659:	8b 74 24 20          	mov    0x20(%esp),%esi
  10065d:	53                   	push   %ebx
  10065e:	e8 4d 00 00 00       	call   1006b0 <strlen>
  100663:	8d 14 03             	lea    (%ebx,%eax,1),%edx
  100666:	83 c4 10             	add    $0x10,%esp
  100669:	0f be 0a             	movsbl (%edx),%ecx
  10066c:	39 ce                	cmp    %ecx,%esi
  10066e:	74 38                	je     1006a8 <rindex+0x58>
  100670:	85 c0                	test   %eax,%eax
  100672:	74 2c                	je     1006a0 <rindex+0x50>
  100674:	8d 44 03 ff          	lea    -0x1(%ebx,%eax,1),%eax
  100678:	8d 4b ff             	lea    -0x1(%ebx),%ecx
  10067b:	eb 0a                	jmp    100687 <rindex+0x37>
  10067d:	8d 76 00             	lea    0x0(%esi),%esi
  100680:	83 e8 01             	sub    $0x1,%eax
  100683:	39 c8                	cmp    %ecx,%eax
  100685:	74 19                	je     1006a0 <rindex+0x50>
  100687:	0f be 10             	movsbl (%eax),%edx
  10068a:	39 f2                	cmp    %esi,%edx
  10068c:	75 f2                	jne    100680 <rindex+0x30>
  10068e:	83 c4 04             	add    $0x4,%esp
  100691:	5b                   	pop    %ebx
  100692:	5e                   	pop    %esi
  100693:	c3                   	ret    
  100694:	8d b6 00 00 00 00    	lea    0x0(%esi),%esi
  10069a:	8d bf 00 00 00 00    	lea    0x0(%edi),%edi
  1006a0:	83 c4 04             	add    $0x4,%esp
  1006a3:	31 c0                	xor    %eax,%eax
  1006a5:	5b                   	pop    %ebx
  1006a6:	5e                   	pop    %esi
  1006a7:	c3                   	ret    
  1006a8:	89 d0                	mov    %edx,%eax
  1006aa:	eb e2                	jmp    10068e <rindex+0x3e>
  1006ac:	66 90                	xchg   %ax,%ax
  1006ae:	66 90                	xchg   %ax,%ax

001006b0 <strlen>:
  1006b0:	8b 54 24 04          	mov    0x4(%esp),%edx
  1006b4:	31 c0                	xor    %eax,%eax
  1006b6:	80 3a 00             	cmpb   $0x0,(%edx)
  1006b9:	74 10                	je     1006cb <strlen+0x1b>
  1006bb:	90                   	nop
  1006bc:	8d 74 26 00          	lea    0x0(%esi,%eiz,1),%esi
  1006c0:	83 c0 01             	add    $0x1,%eax
  1006c3:	80 3c 02 00          	cmpb   $0x0,(%edx,%eax,1)
  1006c7:	75 f7                	jne    1006c0 <strlen+0x10>
  1006c9:	f3 c3                	repz ret 
  1006cb:	f3 c3                	repz ret 
  1006cd:	66 90                	xchg   %ax,%ax
  1006cf:	90                   	nop

001006d0 <strcoll>:
  1006d0:	e9 1b fb ff ff       	jmp    1001f0 <strcmp>
  1006d5:	66 90                	xchg   %ax,%ax
  1006d7:	66 90                	xchg   %ax,%ax
  1006d9:	66 90                	xchg   %ax,%ax
  1006db:	66 90                	xchg   %ax,%ax
  1006dd:	66 90                	xchg   %ax,%ax
  1006df:	90                   	nop

001006e0 <make_color>:
  1006e0:	0f b6 44 24 08       	movzbl 0x8(%esp),%eax
  1006e5:	c1 e0 04             	shl    $0x4,%eax
  1006e8:	0a 44 24 04          	or     0x4(%esp),%al
  1006ec:	c3                   	ret    
  1006ed:	8d 76 00             	lea    0x0(%esi),%esi

001006f0 <term_init>:
  1006f0:	0f b6 15 00 10 10 00 	movzbl 0x101000,%edx
  1006f7:	a1 04 10 10 00       	mov    0x101004,%eax
  1006fc:	c7 05 2c 60 10 00 00 	movl   $0x0,0x10602c
  100703:	00 00 00 
  100706:	c7 05 28 60 10 00 00 	movl   $0x0,0x106028
  10070d:	00 00 00 
  100710:	c7 05 24 60 10 00 50 	movl   $0x50,0x106024
  100717:	00 00 00 
  10071a:	c7 05 20 60 10 00 19 	movl   $0x19,0x106020
  100721:	00 00 00 
  100724:	8d 88 a0 0f 00 00    	lea    0xfa0(%eax),%ecx
  10072a:	c1 e2 08             	shl    $0x8,%edx
  10072d:	83 ca 20             	or     $0x20,%edx
  100730:	66 89 10             	mov    %dx,(%eax)
  100733:	83 c0 02             	add    $0x2,%eax
  100736:	39 c8                	cmp    %ecx,%eax
  100738:	75 f6                	jne    100730 <term_init+0x40>
  10073a:	f3 c3                	repz ret 
  10073c:	8d 74 26 00          	lea    0x0(%esi,%eiz,1),%esi

00100740 <term_putc>:
  100740:	57                   	push   %edi
  100741:	56                   	push   %esi
  100742:	53                   	push   %ebx
  100743:	8b 54 24 10          	mov    0x10(%esp),%edx
  100747:	80 fa 09             	cmp    $0x9,%dl
  10074a:	0f 84 b0 00 00 00    	je     100800 <term_putc+0xc0>
  100750:	80 fa 0a             	cmp    $0xa,%dl
  100753:	a1 2c 60 10 00       	mov    0x10602c,%eax
  100758:	0f 84 82 00 00 00    	je     1007e0 <term_putc+0xa0>
  10075e:	8b 0d 24 60 10 00    	mov    0x106024,%ecx
  100764:	89 c6                	mov    %eax,%esi
  100766:	8b 1d 28 60 10 00    	mov    0x106028,%ebx
  10076c:	8b 3d 04 10 10 00    	mov    0x101004,%edi
  100772:	66 0f be d2          	movsbw %dl,%dx
  100776:	83 c0 01             	add    $0x1,%eax
  100779:	a3 2c 60 10 00       	mov    %eax,0x10602c
  10077e:	0f af f1             	imul   %ecx,%esi
  100781:	01 de                	add    %ebx,%esi
  100783:	8d 34 77             	lea    (%edi,%esi,2),%esi
  100786:	66 89 16             	mov    %dx,(%esi)
  100789:	8b 3d 20 60 10 00    	mov    0x106020,%edi
  10078f:	83 e9 01             	sub    $0x1,%ecx
  100792:	39 d9                	cmp    %ebx,%ecx
  100794:	8d 57 ff             	lea    -0x1(%edi),%edx
  100797:	73 23                	jae    1007bc <term_putc+0x7c>
  100799:	8b 1d 20 60 10 00    	mov    0x106020,%ebx
  10079f:	8d 53 ff             	lea    -0x1(%ebx),%edx
  1007a2:	39 c2                	cmp    %eax,%edx
  1007a4:	73 0c                	jae    1007b2 <term_putc+0x72>
  1007a6:	c7 05 2c 60 10 00 00 	movl   $0x0,0x10602c
  1007ad:	00 00 00 
  1007b0:	31 c0                	xor    %eax,%eax
  1007b2:	c7 05 28 60 10 00 00 	movl   $0x0,0x106028
  1007b9:	00 00 00 
  1007bc:	39 c2                	cmp    %eax,%edx
  1007be:	73 14                	jae    1007d4 <term_putc+0x94>
  1007c0:	c7 05 2c 60 10 00 00 	movl   $0x0,0x10602c
  1007c7:	00 00 00 
  1007ca:	c7 05 28 60 10 00 00 	movl   $0x0,0x106028
  1007d1:	00 00 00 
  1007d4:	5b                   	pop    %ebx
  1007d5:	5e                   	pop    %esi
  1007d6:	5f                   	pop    %edi
  1007d7:	c3                   	ret    
  1007d8:	90                   	nop
  1007d9:	8d b4 26 00 00 00 00 	lea    0x0(%esi,%eiz,1),%esi
  1007e0:	8b 0d 20 60 10 00    	mov    0x106020,%ecx
  1007e6:	83 c0 01             	add    $0x1,%eax
  1007e9:	c7 05 28 60 10 00 00 	movl   $0x0,0x106028
  1007f0:	00 00 00 
  1007f3:	a3 2c 60 10 00       	mov    %eax,0x10602c
  1007f8:	8d 51 ff             	lea    -0x1(%ecx),%edx
  1007fb:	eb bf                	jmp    1007bc <term_putc+0x7c>
  1007fd:	8d 76 00             	lea    0x0(%esi),%esi
  100800:	a1 28 60 10 00       	mov    0x106028,%eax
  100805:	8b 0d 24 60 10 00    	mov    0x106024,%ecx
  10080b:	8d 58 04             	lea    0x4(%eax),%ebx
  10080e:	a1 2c 60 10 00       	mov    0x10602c,%eax
  100813:	89 1d 28 60 10 00    	mov    %ebx,0x106028
  100819:	e9 6b ff ff ff       	jmp    100789 <term_putc+0x49>
  10081e:	66 90                	xchg   %ax,%ax

00100820 <term_print>:
  100820:	53                   	push   %ebx
  100821:	8b 5c 24 08          	mov    0x8(%esp),%ebx
  100825:	0f be 03             	movsbl (%ebx),%eax
  100828:	84 c0                	test   %al,%al
  10082a:	74 12                	je     10083e <term_print+0x1e>
  10082c:	8d 74 26 00          	lea    0x0(%esi,%eiz,1),%esi
  100830:	50                   	push   %eax
  100831:	e8 0a ff ff ff       	call   100740 <term_putc>
  100836:	0f be 03             	movsbl (%ebx),%eax
  100839:	5a                   	pop    %edx
  10083a:	84 c0                	test   %al,%al
  10083c:	75 f2                	jne    100830 <term_print+0x10>
  10083e:	5b                   	pop    %ebx
  10083f:	c3                   	ret    
